; Function Attrs: mustprogress uwtable
define dso_local noundef ptr @_ZN11ImFontAtlas20AddFontFromMemoryTTFEPvifPK12ImFontConfigPKt(ptr noundef nonnull align 8 captures(none) dereferenceable(1180) %0, ptr noundef %1, i32 noundef %2, float noundef %3, ptr noundef readonly captures(address_is_null) %4, ptr noundef %5) local_unnamed_addr #9 align 2 {
  %7 = alloca %struct.ImFontConfig, align 8
  call void @llvm.lifetime.start.p0(i64 144, ptr nonnull %7) #42
  %.not = icmp eq ptr %4, null
  br i1 %.not, label %9, label %8

8:                                                ; preds = %6
  call void @llvm.memcpy.p0.p0.i64(ptr noundef nonnull align 8 dereferenceable(144) %7, ptr noundef nonnull align 8 dereferenceable(144) %4, i64 144, i1 false), !tbaa.struct !281
  %.phi.trans.insert = getelementptr inbounds nuw i8, ptr %7, i64 20
  %.pre = load float, ptr %.phi.trans.insert, align 4
  br label %18

9:                                                ; preds = %6
  %10 = getelementptr inbounds nuw i8, ptr %7, i64 12
  %11 = getelementptr inbounds nuw i8, ptr %7, i64 8
  call void @llvm.memset.p0.i64(ptr noundef nonnull align 8 dereferenceable(144) %11, i8 0, i64 136, i1 false)
  store i8 1, ptr %10, align 4, !tbaa !224
  %12 = getelementptr inbounds nuw i8, ptr %7, i64 24
  store i32 2, ptr %12, align 8, !tbaa !226
  %13 = getelementptr inbounds nuw i8, ptr %7, i64 28
  store i32 1, ptr %13, align 4, !tbaa !227
  %14 = getelementptr inbounds nuw i8, ptr %7, i64 68
  store float 0x47EFFFFFE0000000, ptr %14, align 4, !tbaa !228
  %15 = getelementptr inbounds nuw i8, ptr %7, i64 80
  store float 1.000000e+00, ptr %15, align 8, !tbaa !229
  %16 = getelementptr inbounds nuw i8, ptr %7, i64 84
  store float 1.000000e+00, ptr %16, align 4, !tbaa !230
  %17 = getelementptr inbounds nuw i8, ptr %7, i64 88
  store i16 -1, ptr %17, align 8, !tbaa !231
  br label %18

18:                                               ; preds = %9, %8
  %19 = phi float [ 0.000000e+00, %9 ], [ %.pre, %8 ]
  store ptr %1, ptr %7, align 8, !tbaa !255
  %20 = getelementptr inbounds nuw i8, ptr %7, i64 8
  store i32 %2, ptr %20, align 8, !tbaa !280
  %21 = fcmp ogt float %3, 0.000000e+00
  %22 = getelementptr inbounds nuw i8, ptr %7, i64 20
  %23 = select i1 %21, float %3, float %19
  store float %23, ptr %22, align 4, !tbaa !265
  %.not9 = icmp eq ptr %5, null
  br i1 %.not9, label %26, label %24

24:                                               ; preds = %18
  %25 = getelementptr inbounds nuw i8, ptr %7, i64 56
  store ptr %5, ptr %25, align 8, !tbaa !266
  br label %26

26:                                               ; preds = %24, %18
  %27 = call noundef ptr @_ZN11ImFontAtlas7AddFontEPK12ImFontConfig(ptr noundef nonnull align 8 dereferenceable(1180) %0, ptr noundef nonnull %7)
  call void @llvm.lifetime.end.p0(i64 144, ptr nonnull %7) #42
  ret ptr %27
}